; Function Attrs: nounwind uwtable
define hidden i32 @getInetAddress_addr(ptr noundef %0, ptr noundef %1) local_unnamed_addr #1 {
  %3 = load ptr, ptr %0, align 8
  %4 = getelementptr inbounds i8, ptr %3, i64 760
  %5 = load ptr, ptr %4, align 8
  %6 = load ptr, ptr @ia_holderID, align 8
  %7 = tail call ptr %5(ptr noundef nonnull %0, ptr noundef %1, ptr noundef %6) #7
  %8 = icmp eq ptr %7, null
  br i1 %8, label %9, label %10

9:                                                ; preds = %2
  tail call void @JNU_ThrowNullPointerException(ptr noundef nonnull %0, ptr noundef nonnull @.str.4) #7
  br label %19

10:                                               ; preds = %2
  %11 = load ptr, ptr %0, align 8
  %12 = getelementptr inbounds i8, ptr %11, i64 800
  %13 = load ptr, ptr %12, align 8
  %14 = load ptr, ptr @iac_addressID, align 8
  %15 = tail call i32 %13(ptr noundef nonnull %0, ptr noundef nonnull %7, ptr noundef %14) #7
  %16 = load ptr, ptr %0, align 8
  %17 = getelementptr inbounds i8, ptr %16, i64 184
  %18 = load ptr, ptr %17, align 8
  tail call void %18(ptr noundef nonnull %0, ptr noundef nonnull %7) #7
  br label %19

19:                                               ; preds = %10, %9
  %.0 = phi i32 [ -1, %9 ], [ %15, %10 ]
  ret i32 %.0
}